target datalayout = "e-m:e-p270:32:32-p271:32:32-p272:64:64-i64:64-i128:128-f80:128-n8:16:32:64-S128"
target triple = "x86_64-pc-linux-gnu"

%struct.test_st = type { [32 x i8], i32, [4096 x i8], i32, ptr }

@.str.3 = private unnamed_addr constant [27 x i8] c"../openssl/test/cmactest.c\00", align 1
@.str.4 = private unnamed_addr constant [4 x i8] c"ctx\00", align 1
@.str.6 = private unnamed_addr constant [49 x i8] c"CMAC_Update(ctx, test[0].data, test[0].data_len)\00", align 1
@.str.19 = private unnamed_addr constant [70 x i8] c"CMAC_Init(ctx, test[0].key, test[0].key_len, EVP_aes_128_cbc(), NULL)\00", align 1
@.str.21 = private unnamed_addr constant [2 x i8] c"p\00", align 1
@.str.22 = private unnamed_addr constant [12 x i8] c"test[0].mac\00", align 1
@pt.buf = internal global [81 x i8] zeroinitializer, align 16
@.str.45 = private unnamed_addr constant [5 x i8] c"%02x\00", align 1
@.str.46 = private unnamed_addr constant [5 x i8] c"ctx2\00", align 1
@.str.47 = private unnamed_addr constant [25 x i8] c"CMAC_CTX_copy(ctx2, ctx)\00", align 1
@.str.48 = private unnamed_addr constant [28 x i8] c"CMAC_Final(ctx2, buf, &len)\00", align 1

; Function Attrs: nounwind uwtable
define internal ptr @pt(ptr noundef %0, i32 noundef %1) #0 {
  %3 = alloca ptr, align 8
  %4 = alloca i32, align 4
  %5 = alloca i32, align 4
  store ptr %0, ptr %3, align 8, !tbaa !20
  store i32 %1, ptr %4, align 4, !tbaa !9
  call void @llvm.lifetime.start.p0(i64 4, ptr %5) #5
  store i32 0, ptr %5, align 4, !tbaa !9
  br label %6

6:                                                ; preds = %30, %2
  %7 = load i32, ptr %5, align 4, !tbaa !9
  %8 = load i32, ptr %4, align 4, !tbaa !9
  %9 = icmp ult i32 %7, %8
  br i1 %9, label %10, label %16

10:                                               ; preds = %6
  %11 = load i32, ptr %5, align 4, !tbaa !9
  %12 = add i32 %11, 1
  %13 = mul i32 %12, 2
  %14 = zext i32 %13 to i64
  %15 = icmp ult i64 %14, 81
  br label %16

16:                                               ; preds = %10, %6
  %17 = phi i1 [ false, %6 ], [ %15, %10 ]
  br i1 %17, label %18, label %33

18:                                               ; preds = %16
  %19 = load i32, ptr %5, align 4, !tbaa !9
  %20 = mul i32 %19, 2
  %21 = zext i32 %20 to i64
  %22 = getelementptr inbounds nuw i8, ptr @pt.buf, i64 %21
  %23 = load ptr, ptr %3, align 8, !tbaa !20
  %24 = load i32, ptr %5, align 4, !tbaa !9
  %25 = zext i32 %24 to i64
  %26 = getelementptr inbounds nuw i8, ptr %23, i64 %25
  %27 = load i8, ptr %26, align 1, !tbaa !22
  %28 = zext i8 %27 to i32
  %29 = call i32 (ptr, i64, ptr, ...) @BIO_snprintf(ptr noundef %22, i64 noundef 3, ptr noundef @.str.45, i32 noundef %28)
  br label %30

30:                                               ; preds = %18
  %31 = load i32, ptr %5, align 4, !tbaa !9
  %32 = add i32 %31, 1
  store i32 %32, ptr %5, align 4, !tbaa !9
  br label %6, !llvm.loop !23

33:                                               ; preds = %16
  call void @llvm.lifetime.end.p0(i64 4, ptr %5) #5
  ret ptr @pt.buf
}

; Function Attrs: nounwind uwtable
define internal i32 @test_cmac_copy() #0 {
  %1 = alloca ptr, align 8
  %2 = alloca ptr, align 8
  %3 = alloca ptr, align 8
  %4 = alloca [16 x i8], align 16
  %5 = alloca i64, align 8
  %6 = alloca i32, align 4
  call void @llvm.lifetime.start.p0(i64 8, ptr %1) #5
  call void @llvm.lifetime.start.p0(i64 8, ptr %2) #5
  store ptr null, ptr %2, align 8, !tbaa !4
  call void @llvm.lifetime.start.p0(i64 8, ptr %3) #5
  store ptr null, ptr %3, align 8, !tbaa !4
  call void @llvm.lifetime.start.p0(i64 16, ptr %4) #5
  call void @llvm.lifetime.start.p0(i64 8, ptr %5) #5
  call void @llvm.lifetime.start.p0(i64 4, ptr %6) #5
  store i32 0, ptr %6, align 4, !tbaa !9
  %7 = call ptr @CMAC_CTX_new()
  store ptr %7, ptr %2, align 8, !tbaa !4
  %8 = call ptr @CMAC_CTX_new()
  store ptr %8, ptr %3, align 8, !tbaa !4
  %9 = load ptr, ptr %2, align 8, !tbaa !4
  %10 = call i32 @test_ptr(ptr noundef @.str.3, i32 noundef 309, ptr noundef @.str.4, ptr noundef %9)
  %11 = icmp ne i32 %10, 0
  br i1 %11, label %12, label %16

12:                                               ; preds = %0
  %13 = load ptr, ptr %3, align 8, !tbaa !4
  %14 = call i32 @test_ptr(ptr noundef @.str.3, i32 noundef 309, ptr noundef @.str.46, ptr noundef %13)
  %15 = icmp ne i32 %14, 0
  br i1 %15, label %17, label %16

16:                                               ; preds = %12, %0
  br label %64

17:                                               ; preds = %12
  %18 = load ptr, ptr %2, align 8, !tbaa !4
  %19 = load i32, ptr getelementptr inbounds nuw (%struct.test_st, ptr @test, i32 0, i32 1), align 16, !tbaa !14
  %20 = sext i32 %19 to i64
  %21 = call ptr @EVP_aes_128_cbc()
  %22 = call i32 @CMAC_Init(ptr noundef %18, ptr noundef @test, i64 noundef %20, ptr noundef %21, ptr noundef null)
  %23 = icmp ne i32 %22, 0
  %24 = zext i1 %23 to i32
  %25 = call i32 @test_true(ptr noundef @.str.3, i32 noundef 313, ptr noundef @.str.19, i32 noundef %24)
  %26 = icmp ne i32 %25, 0
  br i1 %26, label %27, label %52

27:                                               ; preds = %17
  %28 = load ptr, ptr %2, align 8, !tbaa !4
  %29 = load i32, ptr getelementptr inbounds nuw (%struct.test_st, ptr @test, i32 0, i32 3), align 4, !tbaa !11
  %30 = sext i32 %29 to i64
  %31 = call i32 @CMAC_Update(ptr noundef %28, ptr noundef getelementptr inbounds nuw (%struct.test_st, ptr @test, i32 0, i32 2), i64 noundef %30)
  %32 = icmp ne i32 %31, 0
  %33 = zext i1 %32 to i32
  %34 = call i32 @test_true(ptr noundef @.str.3, i32 noundef 314, ptr noundef @.str.6, i32 noundef %33)
  %35 = icmp ne i32 %34, 0
  br i1 %35, label %36, label %52

36:                                               ; preds = %27
  %37 = load ptr, ptr %3, align 8, !tbaa !4
  %38 = load ptr, ptr %2, align 8, !tbaa !4
  %39 = call i32 @CMAC_CTX_copy(ptr noundef %37, ptr noundef %38)
  %40 = icmp ne i32 %39, 0
  %41 = zext i1 %40 to i32
  %42 = call i32 @test_true(ptr noundef @.str.3, i32 noundef 315, ptr noundef @.str.47, i32 noundef %41)
  %43 = icmp ne i32 %42, 0
  br i1 %43, label %44, label %52

44:                                               ; preds = %36
  %45 = load ptr, ptr %3, align 8, !tbaa !4
  %46 = getelementptr inbounds [16 x i8], ptr %4, i64 0, i64 0
  %47 = call i32 @CMAC_Final(ptr noundef %45, ptr noundef %46, ptr noundef %5)
  %48 = icmp ne i32 %47, 0
  %49 = zext i1 %48 to i32
  %50 = call i32 @test_true(ptr noundef @.str.3, i32 noundef 316, ptr noundef @.str.48, i32 noundef %49)
  %51 = icmp ne i32 %50, 0
  br i1 %51, label %53, label %52

52:                                               ; preds = %44, %36, %27, %17
  br label %64

53:                                               ; preds = %44
  %54 = getelementptr inbounds [16 x i8], ptr %4, i64 0, i64 0
  %55 = load i64, ptr %5, align 8, !tbaa !15
  %56 = trunc i64 %55 to i32
  %57 = call ptr @pt(ptr noundef %54, i32 noundef %56)
  store ptr %57, ptr %1, align 8, !tbaa !20
  %58 = load ptr, ptr %1, align 8, !tbaa !20
  %59 = load ptr, ptr getelementptr inbounds nuw (%struct.test_st, ptr @test, i32 0, i32 4), align 8, !tbaa !21
  %60 = call i32 @test_str_eq(ptr noundef @.str.3, i32 noundef 320, ptr noundef @.str.21, ptr noundef @.str.22, ptr noundef %58, ptr noundef %59)
  %61 = icmp ne i32 %60, 0
  br i1 %61, label %63, label %62

62:                                               ; preds = %53
  br label %64

63:                                               ; preds = %53
  store i32 1, ptr %6, align 4, !tbaa !9
  br label %64

64:                                               ; preds = %63, %62, %52, %16
  %65 = load ptr, ptr %3, align 8, !tbaa !4
  call void @CMAC_CTX_free(ptr noundef %65)
  %66 = load ptr, ptr %2, align 8, !tbaa !4
  call void @CMAC_CTX_free(ptr noundef %66)
  %67 = load i32, ptr %6, align 4, !tbaa !9
  call void @llvm.lifetime.end.p0(i64 4, ptr %6) #5
  call void @llvm.lifetime.end.p0(i64 8, ptr %5) #5
  call void @llvm.lifetime.end.p0(i64 16, ptr %4) #5
  call void @llvm.lifetime.end.p0(i64 8, ptr %3) #5
  call void @llvm.lifetime.end.p0(i64 8, ptr %2) #5
  call void @llvm.lifetime.end.p0(i64 8, ptr %1) #5
  ret i32 %67
}