; Function Attrs: nounwind uwtable
define internal range(i32 0, 2) i32 @test_cmac_copy() #0 {
  %1 = alloca [16 x i8], align 16
  %2 = alloca i64, align 8
  call void @llvm.lifetime.start.p0(i64 16, ptr nonnull %1) #6
  call void @llvm.lifetime.start.p0(i64 8, ptr nonnull %2) #6
  %3 = tail call ptr @CMAC_CTX_new() #6
  %4 = tail call ptr @CMAC_CTX_new() #6
  %5 = tail call i32 @test_ptr(ptr noundef nonnull @.str.3, i32 noundef 309, ptr noundef nonnull @.str.4, ptr noundef %3) #6
  %.not = icmp eq i32 %5, 0
  br i1 %.not, label %46, label %6

6:                                                ; preds = %0
  %7 = tail call i32 @test_ptr(ptr noundef nonnull @.str.3, i32 noundef 309, ptr noundef nonnull @.str.46, ptr noundef %4) #6
  %.not10 = icmp eq i32 %7, 0
  br i1 %.not10, label %46, label %8

8:                                                ; preds = %6
  %9 = load i32, ptr getelementptr inbounds nuw (i8, ptr @test, i64 32), align 16, !tbaa !11
  %10 = sext i32 %9 to i64
  %11 = tail call ptr @EVP_aes_128_cbc() #6
  %12 = tail call i32 @CMAC_Init(ptr noundef %3, ptr noundef nonnull @test, i64 noundef %10, ptr noundef %11, ptr noundef null) #6
  %13 = icmp ne i32 %12, 0
  %14 = zext i1 %13 to i32
  %15 = tail call i32 @test_true(ptr noundef nonnull @.str.3, i32 noundef 313, ptr noundef nonnull @.str.19, i32 noundef %14) #6
  %.not11 = icmp eq i32 %15, 0
  br i1 %.not11, label %46, label %16

16:                                               ; preds = %8
  %17 = load i32, ptr getelementptr inbounds nuw (i8, ptr @test, i64 4132), align 4, !tbaa !4
  %18 = sext i32 %17 to i64
  %19 = tail call i32 @CMAC_Update(ptr noundef %3, ptr noundef nonnull getelementptr inbounds nuw (i8, ptr @test, i64 36), i64 noundef %18) #6
  %20 = icmp ne i32 %19, 0
  %21 = zext i1 %20 to i32
  %22 = tail call i32 @test_true(ptr noundef nonnull @.str.3, i32 noundef 314, ptr noundef nonnull @.str.6, i32 noundef %21) #6
  %.not12 = icmp eq i32 %22, 0
  br i1 %.not12, label %46, label %23

23:                                               ; preds = %16
  %24 = tail call i32 @CMAC_CTX_copy(ptr noundef %4, ptr noundef %3) #6
  %25 = icmp ne i32 %24, 0
  %26 = zext i1 %25 to i32
  %27 = tail call i32 @test_true(ptr noundef nonnull @.str.3, i32 noundef 315, ptr noundef nonnull @.str.47, i32 noundef %26) #6
  %.not13 = icmp eq i32 %27, 0
  br i1 %.not13, label %46, label %28

28:                                               ; preds = %23
  %29 = call i32 @CMAC_Final(ptr noundef %4, ptr noundef nonnull %1, ptr noundef nonnull %2) #6
  %30 = icmp ne i32 %29, 0
  %31 = zext i1 %30 to i32
  %32 = call i32 @test_true(ptr noundef nonnull @.str.3, i32 noundef 316, ptr noundef nonnull @.str.48, i32 noundef %31) #6
  %.not14 = icmp eq i32 %32, 0
  br i1 %.not14, label %46, label %33

33:                                               ; preds = %28
  %34 = load i64, ptr %2, align 8, !tbaa !15
  %35 = trunc i64 %34 to i32
  %.not.i = icmp eq i32 %35, 0
  br i1 %.not.i, label %pt.exit, label %.lr.ph.preheader.i

.lr.ph.preheader.i:                               ; preds = %33
  %36 = add i32 %35, -1
  %umin.i = call i32 @llvm.umin.i32(i32 %36, i32 39)
  %37 = add nuw nsw i32 %umin.i, 1
  %wide.trip.count.i = zext nneg i32 %37 to i64
  br label %.lr.ph.i

.lr.ph.i:                                         ; preds = %.lr.ph.i, %.lr.ph.preheader.i
  %indvars.iv7.i = phi i64 [ 0, %.lr.ph.preheader.i ], [ %indvars.iv.next8.i, %.lr.ph.i ]
  %38 = shl nuw i64 %indvars.iv7.i, 1
  %39 = getelementptr inbounds nuw i8, ptr @pt.buf, i64 %38
  %40 = getelementptr inbounds nuw i8, ptr %1, i64 %indvars.iv7.i
  %41 = load i8, ptr %40, align 1, !tbaa !17
  %42 = zext i8 %41 to i32
  %43 = call i32 (ptr, i64, ptr, ...) @BIO_snprintf(ptr noundef nonnull %39, i64 noundef 3, ptr noundef nonnull @.str.45, i32 noundef %42) #6
  %indvars.iv.next8.i = add nuw nsw i64 %indvars.iv7.i, 1
  %exitcond.not.i = icmp eq i64 %indvars.iv.next8.i, %wide.trip.count.i
  br i1 %exitcond.not.i, label %pt.exit, label %.lr.ph.i, !llvm.loop !18

pt.exit:                                          ; preds = %.lr.ph.i, %33
  %44 = load ptr, ptr getelementptr inbounds nuw (i8, ptr @test, i64 4136), align 8, !tbaa !19
  %45 = call i32 @test_str_eq(ptr noundef nonnull @.str.3, i32 noundef 320, ptr noundef nonnull @.str.21, ptr noundef nonnull @.str.22, ptr noundef nonnull @pt.buf, ptr noundef %44) #6
  %.not15 = icmp ne i32 %45, 0
  %spec.select = zext i1 %.not15 to i32
  br label %46

46:                                               ; preds = %pt.exit, %8, %16, %23, %28, %0, %6
  %.0 = phi i32 [ 0, %28 ], [ 0, %23 ], [ 0, %16 ], [ 0, %8 ], [ 0, %6 ], [ 0, %0 ], [ %spec.select, %pt.exit ]
  call void @CMAC_CTX_free(ptr noundef %4) #6
  call void @CMAC_CTX_free(ptr noundef %3) #6
  call void @llvm.lifetime.end.p0(i64 8, ptr nonnull %2) #6
  call void @llvm.lifetime.end.p0(i64 16, ptr nonnull %1) #6
  ret i32 %.0
}